; Function Attrs: mustprogress nofree norecurse nosync nounwind willreturn memory(read, inaccessiblemem: none) uwtable
define dso_local noundef zeroext i1 @_ZNK12CVQualifiers20is_const_after_derefEi(ptr nocapture noundef nonnull readonly align 8 dereferenceable(96) %0, i32 noundef %1) local_unnamed_addr #7 align 2 personality ptr @__gxx_personality_v0 {
  %3 = icmp slt i32 %1, 0
  br i1 %3, label %29, label %4

4:                                                ; preds = %2
  %5 = getelementptr inbounds i8, ptr %0, i64 16
  %6 = getelementptr inbounds i8, ptr %0, i64 32
  %7 = load ptr, ptr %6, align 8
  %8 = getelementptr inbounds i8, ptr %0, i64 40
  %9 = load i32, ptr %8, align 8
  %10 = load ptr, ptr %5, align 8
  %11 = ptrtoint ptr %7 to i64
  %12 = ptrtoint ptr %10 to i64
  %13 = sub i64 %11, %12
  %14 = shl nsw i64 %13, 3
  %15 = zext i32 %9 to i64
  %16 = xor i32 %1, -1
  %17 = sext i32 %16 to i64
  %18 = add nsw i64 %15, %17
  %19 = add i64 %18, %14
  %20 = sdiv i64 %19, 64
  %21 = getelementptr inbounds i64, ptr %10, i64 %20
  %22 = and i64 %19, -9223372036854775745
  %23 = icmp ugt i64 %22, -9223372036854775808
  %storemerge.idx.i.i.i.i.i = select i1 %23, i64 -8, i64 0
  %storemerge.i.i.i.i.i = getelementptr inbounds i8, ptr %21, i64 %storemerge.idx.i.i.i.i.i
  %24 = and i64 %19, 63
  %25 = shl nuw i64 1, %24
  %26 = load i64, ptr %storemerge.i.i.i.i.i, align 8
  %27 = and i64 %25, %26
  %28 = icmp ne i64 %27, 0
  br label %29

29:                                               ; preds = %2, %4
  %.0 = phi i1 [ %28, %4 ], [ false, %2 ]
  ret i1 %.0
}